target datalayout = "e-m:e-p270:32:32-p271:32:32-p272:64:64-i64:64-i128:128-f80:128-n8:16:32:64-S128"
target triple = "x86_64-pc-linux-gnu"

%struct.SurfaceDataRasInfo = type { %struct.SurfaceDataBounds, ptr, i32, i32, i32, i32, ptr, ptr, ptr, ptr, ptr, ptr, i32, %union.anon.0 }
%struct.SurfaceDataBounds = type { i32, i32, i32, i32 }
%union.anon.0 = type { ptr, [56 x i8] }

; Function Attrs: nounwind uwtable
define hidden void @IntArgbBmToThreeByteBgrXparOver(ptr noundef %0, ptr noundef %1, i32 noundef %2, i32 noundef %3, ptr noundef %4, ptr noundef %5, ptr noundef %6, ptr noundef %7) #1 {
  %9 = alloca ptr, align 8
  %10 = alloca ptr, align 8
  %11 = alloca i32, align 4
  %12 = alloca i32, align 4
  %13 = alloca ptr, align 8
  %14 = alloca ptr, align 8
  %15 = alloca ptr, align 8
  %16 = alloca ptr, align 8
  %17 = alloca ptr, align 8
  %18 = alloca ptr, align 8
  %19 = alloca i32, align 4
  %20 = alloca i32, align 4
  %21 = alloca i32, align 4
  %22 = alloca i32, align 4
  %23 = alloca i32, align 4
  store ptr %0, ptr %9, align 8
  store ptr %1, ptr %10, align 8
  store i32 %2, ptr %11, align 4
  store i32 %3, ptr %12, align 4
  store ptr %4, ptr %13, align 8
  store ptr %5, ptr %14, align 8
  store ptr %6, ptr %15, align 8
  store ptr %7, ptr %16, align 8
  br label %24

24:                                               ; preds = %8
  %25 = load ptr, ptr %9, align 8
  store ptr %25, ptr %17, align 8
  %26 = load ptr, ptr %10, align 8
  store ptr %26, ptr %18, align 8
  %27 = load ptr, ptr %13, align 8
  %28 = getelementptr inbounds %struct.SurfaceDataRasInfo, ptr %27, i32 0, i32 4
  %29 = load i32, ptr %28, align 8
  store i32 %29, ptr %19, align 4
  %30 = load ptr, ptr %14, align 8
  %31 = getelementptr inbounds %struct.SurfaceDataRasInfo, ptr %30, i32 0, i32 4
  %32 = load i32, ptr %31, align 8
  store i32 %32, ptr %20, align 4
  %33 = load i32, ptr %11, align 4
  %34 = mul i32 %33, 4
  %35 = load i32, ptr %19, align 4
  %36 = sub i32 %35, %34
  store i32 %36, ptr %19, align 4
  %37 = load i32, ptr %11, align 4
  %38 = mul i32 %37, 3
  %39 = load i32, ptr %20, align 4
  %40 = sub i32 %39, %38
  store i32 %40, ptr %20, align 4
  br label %41

41:                                               ; preds = %97, %24
  %42 = load i32, ptr %11, align 4
  store i32 %42, ptr %21, align 4
  br label %43

43:                                               ; preds = %80, %41
  br label %44

44:                                               ; preds = %43
  %45 = load ptr, ptr %17, align 8
  %46 = getelementptr inbounds i32, ptr %45, i64 0
  %47 = load i32, ptr %46, align 4
  store i32 %47, ptr %22, align 4
  %48 = load i32, ptr %22, align 4
  %49 = ashr i32 %48, 24
  %50 = icmp eq i32 %49, 0
  br i1 %50, label %70, label %51

51:                                               ; preds = %44
  %52 = load i32, ptr %22, align 4
  store i32 %52, ptr %23, align 4
  br label %53

53:                                               ; preds = %51
  %54 = load i32, ptr %23, align 4
  %55 = ashr i32 %54, 0
  %56 = trunc i32 %55 to i8
  %57 = load ptr, ptr %18, align 8
  %58 = getelementptr inbounds i8, ptr %57, i64 0
  store i8 %56, ptr %58, align 1
  %59 = load i32, ptr %23, align 4
  %60 = ashr i32 %59, 8
  %61 = trunc i32 %60 to i8
  %62 = load ptr, ptr %18, align 8
  %63 = getelementptr inbounds i8, ptr %62, i64 1
  store i8 %61, ptr %63, align 1
  %64 = load i32, ptr %23, align 4
  %65 = ashr i32 %64, 16
  %66 = trunc i32 %65 to i8
  %67 = load ptr, ptr %18, align 8
  %68 = getelementptr inbounds i8, ptr %67, i64 2
  store i8 %66, ptr %68, align 1
  br label %69

69:                                               ; preds = %53
  br label %70

70:                                               ; preds = %69, %44
  br label %71

71:                                               ; preds = %70
  %72 = load ptr, ptr %17, align 8
  %73 = ptrtoint ptr %72 to i64
  %74 = add nsw i64 %73, 4
  %75 = inttoptr i64 %74 to ptr
  store ptr %75, ptr %17, align 8
  %76 = load ptr, ptr %18, align 8
  %77 = ptrtoint ptr %76 to i64
  %78 = add nsw i64 %77, 3
  %79 = inttoptr i64 %78 to ptr
  store ptr %79, ptr %18, align 8
  br label %80

80:                                               ; preds = %71
  %81 = load i32, ptr %21, align 4
  %82 = add i32 %81, -1
  store i32 %82, ptr %21, align 4
  %83 = icmp ugt i32 %82, 0
  br i1 %83, label %43, label %84, !llvm.loop !31

84:                                               ; preds = %80
  %85 = load ptr, ptr %17, align 8
  %86 = ptrtoint ptr %85 to i64
  %87 = load i32, ptr %19, align 4
  %88 = sext i32 %87 to i64
  %89 = add nsw i64 %86, %88
  %90 = inttoptr i64 %89 to ptr
  store ptr %90, ptr %17, align 8
  %91 = load ptr, ptr %18, align 8
  %92 = ptrtoint ptr %91 to i64
  %93 = load i32, ptr %20, align 4
  %94 = sext i32 %93 to i64
  %95 = add nsw i64 %92, %94
  %96 = inttoptr i64 %95 to ptr
  store ptr %96, ptr %18, align 8
  br label %97

97:                                               ; preds = %84
  %98 = load i32, ptr %12, align 4
  %99 = add i32 %98, -1
  store i32 %99, ptr %12, align 4
  %100 = icmp ugt i32 %99, 0
  br i1 %100, label %41, label %101, !llvm.loop !32

101:                                              ; preds = %97
  br label %102

102:                                              ; preds = %101
  ret void
}