; Function Attrs: nofree norecurse nosync nounwind memory(readwrite, inaccessiblemem: none) uwtable
define hidden void @IntArgbBmToThreeByteBgrXparOver(ptr noundef %0, ptr noundef %1, i32 noundef %2, i32 noundef %3, ptr nocapture noundef readonly %4, ptr nocapture noundef readonly %5, ptr nocapture readnone %6, ptr nocapture readnone %7) #1 {
  %9 = getelementptr inbounds i8, ptr %4, i64 32
  %10 = load i32, ptr %9, align 8
  %11 = getelementptr inbounds i8, ptr %5, i64 32
  %12 = load i32, ptr %11, align 8
  %13 = shl i32 %2, 2
  %14 = sub i32 %10, %13
  %.neg = mul i32 %2, -3
  %15 = add i32 %12, %.neg
  %16 = sext i32 %14 to i64
  %17 = sext i32 %15 to i64
  br label %18

18:                                               ; preds = %38, %8
  %.027 = phi ptr [ %1, %8 ], [ %42, %38 ]
  %.025 = phi ptr [ %0, %8 ], [ %40, %38 ]
  %.0 = phi i32 [ %3, %8 ], [ %43, %38 ]
  br label %19

19:                                               ; preds = %30, %18
  %.128 = phi ptr [ %.027, %18 ], [ %36, %30 ]
  %.026 = phi i32 [ %2, %18 ], [ %37, %30 ]
  %.1 = phi ptr [ %.025, %18 ], [ %33, %30 ]
  %20 = load i32, ptr %.1, align 4
  %21 = icmp ult i32 %20, 16777216
  br i1 %21, label %30, label %22

22:                                               ; preds = %19
  %23 = trunc i32 %20 to i8
  store i8 %23, ptr %.128, align 1
  %24 = lshr i32 %20, 8
  %25 = trunc i32 %24 to i8
  %26 = getelementptr inbounds i8, ptr %.128, i64 1
  store i8 %25, ptr %26, align 1
  %27 = lshr i32 %20, 16
  %28 = trunc i32 %27 to i8
  %29 = getelementptr inbounds i8, ptr %.128, i64 2
  store i8 %28, ptr %29, align 1
  br label %30

30:                                               ; preds = %19, %22
  %31 = ptrtoint ptr %.1 to i64
  %32 = add nsw i64 %31, 4
  %33 = inttoptr i64 %32 to ptr
  %34 = ptrtoint ptr %.128 to i64
  %35 = add nsw i64 %34, 3
  %36 = inttoptr i64 %35 to ptr
  %37 = add i32 %.026, -1
  %.not = icmp eq i32 %37, 0
  br i1 %.not, label %38, label %19, !llvm.loop !31

38:                                               ; preds = %30
  %39 = add nsw i64 %32, %16
  %40 = inttoptr i64 %39 to ptr
  %41 = add nsw i64 %35, %17
  %42 = inttoptr i64 %41 to ptr
  %43 = add i32 %.0, -1
  %.not31 = icmp eq i32 %43, 0
  br i1 %.not31, label %44, label %18, !llvm.loop !32

44:                                               ; preds = %38
  ret void
}